target datalayout = "e-m:e-p270:32:32-p271:32:32-p272:64:64-i64:64-i128:128-f80:128-n8:16:32:64-S128"
target triple = "x86_64-pc-linux-gnu"

%class.AudioRouting = type { i8, i32 }
%class.QFlags = type { i32 }
%class.AudioRoutingFilter = type <{ %class.QIODevice, ptr, i8, [3 x i8], %class.AudioRouting, [4 x i8] }>
%class.QIODevice = type { %class.QObject }
%class.QObject = type { ptr, %class.QScopedPointer }
%class.QScopedPointer = type { ptr }

; Function Attrs: mustprogress null_pointer_is_valid sspstrong uwtable
define void @_ZN18AudioRoutingFilterC2EP9QIODeviceb12AudioRouting(ptr noundef align 8 dereferenceable_or_null(36) %0, ptr noundef %1, i1 noundef zeroext %2, i64 %3) unnamed_addr #0 align 2 personality ptr @__gxx_personality_v0 {
  %5 = alloca %class.AudioRouting, align 4
  %6 = alloca ptr, align 8
  %7 = alloca ptr, align 8
  %8 = alloca i8, align 1
  %9 = alloca %class.QFlags, align 4
  %10 = alloca ptr, align 8
  %11 = alloca i32, align 4
  store i64 %3, ptr %5, align 4
  store ptr %0, ptr %6, align 8
  store ptr %1, ptr %7, align 8
  %12 = zext i1 %2 to i8
  store i8 %12, ptr %8, align 1
  %13 = load ptr, ptr %6, align 8
  %14 = load ptr, ptr %7, align 8
  call void @_ZN9QIODeviceC2EP7QObject(ptr noundef align 8 dereferenceable_or_null(16) %13, ptr noundef %14)
  store ptr getelementptr inbounds inrange(-16, 232) ({ [31 x ptr] }, ptr @_ZTV18AudioRoutingFilter, i32 0, i32 0, i32 2), ptr %13, align 8
  %15 = getelementptr inbounds nuw %class.AudioRoutingFilter, ptr %13, i32 0, i32 1
  %16 = load ptr, ptr %7, align 8
  store ptr %16, ptr %15, align 8
  %17 = getelementptr inbounds nuw %class.AudioRoutingFilter, ptr %13, i32 0, i32 2
  %18 = load i8, ptr %8, align 1, !range !6, !noundef !7
  %19 = trunc i8 %18 to i1
  %20 = zext i1 %19 to i8
  store i8 %20, ptr %17, align 8
  %21 = getelementptr inbounds nuw %class.AudioRoutingFilter, ptr %13, i32 0, i32 4
  call void @llvm.memcpy.p0.p0.i64(ptr align 4 %21, ptr align 4 %5, i64 8, i1 false)
  %22 = getelementptr inbounds nuw %class.AudioRoutingFilter, ptr %13, i32 0, i32 1
  %23 = load ptr, ptr %22, align 8
  %24 = invoke i32 @_ZNK9QIODevice8openModeEv(ptr noundef align 8 dereferenceable_or_null(16) %23)
          to label %25 unwind label %31

25:                                               ; preds = %4
  %26 = getelementptr inbounds nuw %class.QFlags, ptr %9, i32 0, i32 0
  store i32 %24, ptr %26, align 4
  %27 = getelementptr inbounds nuw %class.QFlags, ptr %9, i32 0, i32 0
  %28 = load i32, ptr %27, align 4
  %29 = invoke noundef zeroext i1 @_ZN9QIODevice4openE6QFlagsIN13QIODeviceBase12OpenModeFlagEE(ptr noundef align 8 dereferenceable_or_null(16) %13, i32 %28)
          to label %30 unwind label %31

30:                                               ; preds = %25
  ret void

31:                                               ; preds = %25, %4
  %32 = landingpad { ptr, i32 }
          cleanup
  %33 = extractvalue { ptr, i32 } %32, 0
  store ptr %33, ptr %10, align 8
  %34 = extractvalue { ptr, i32 } %32, 1
  store i32 %34, ptr %11, align 4
  call void @_ZN9QIODeviceD2Ev(ptr noundef align 8 dereferenceable_or_null(16) %13) #9
  br label %35

35:                                               ; preds = %31
  %36 = load ptr, ptr %10, align 8
  %37 = load i32, ptr %11, align 4
  %38 = insertvalue { ptr, i32 } poison, ptr %36, 0
  %39 = insertvalue { ptr, i32 } %38, i32 %37, 1
  resume { ptr, i32 } %39
}