; Function Attrs: mustprogress null_pointer_is_valid sspstrong uwtable
define void @_ZN18AudioRoutingFilterC2EP9QIODeviceb12AudioRouting(ptr noundef align 8 dereferenceable_or_null(36) %0, ptr noundef %1, i1 noundef zeroext %2, i64 %3) unnamed_addr #0 align 2 personality ptr @__gxx_personality_v0 {
  %5 = zext i1 %2 to i8
  tail call void @_ZN9QIODeviceC2EP7QObject(ptr noundef align 8 dereferenceable_or_null(16) %0, ptr noundef %1)
  store ptr getelementptr inbounds nuw inrange(-16, 232) (i8, ptr @_ZTV18AudioRoutingFilter, i64 16), ptr %0, align 8
  %6 = getelementptr inbounds nuw i8, ptr %0, i64 16
  store ptr %1, ptr %6, align 8
  %7 = getelementptr inbounds nuw i8, ptr %0, i64 24
  store i8 %5, ptr %7, align 8
  %8 = getelementptr inbounds nuw i8, ptr %0, i64 28
  store i64 %3, ptr %8, align 4
  %9 = invoke i32 @_ZNK9QIODevice8openModeEv(ptr noundef align 8 dereferenceable_or_null(16) %1)
          to label %10 unwind label %13

10:                                               ; preds = %4
  %11 = invoke noundef zeroext i1 @_ZN9QIODevice4openE6QFlagsIN13QIODeviceBase12OpenModeFlagEE(ptr noundef align 8 dereferenceable_or_null(16) %0, i32 %9)
          to label %12 unwind label %13

12:                                               ; preds = %10
  ret void

13:                                               ; preds = %10, %4
  %14 = landingpad { ptr, i32 }
          cleanup
  tail call void @_ZN9QIODeviceD2Ev(ptr noundef align 8 dereferenceable_or_null(16) %0) #5
  resume { ptr, i32 } %14
}